; Function Attrs: nounwind uwtable
define internal fastcc void @print_hwloc_obj(ptr noundef nonnull captures(none) %0, ptr noundef %1, ptr noundef %2, ptr noundef %3) unnamed_addr #0 {
  %5 = alloca [1024 x i8], align 16
  %6 = alloca ptr, align 8
  %7 = alloca ptr, align 8
  %8 = alloca ptr, align 8
  call void @llvm.lifetime.start.p0(i64 1024, ptr nonnull %5) #7
  call void @llvm.lifetime.start.p0(i64 8, ptr nonnull %6) #7
  call void @llvm.lifetime.start.p0(i64 8, ptr nonnull %7) #7
  call void @llvm.lifetime.start.p0(i64 8, ptr nonnull %8) #7
  %9 = call i32 @hwloc_obj_type_snprintf(ptr noundef nonnull %5, i64 noundef 1024, ptr noundef %3, i32 noundef 1) #7
  %10 = icmp eq ptr %1, null
  %11 = select i1 %10, ptr @.str.2, ptr %1
  %12 = call i32 (ptr, ptr, ...) @pmix_asprintf(ptr noundef nonnull %8, ptr noundef nonnull @.str.1, ptr noundef nonnull %11) #7
  %13 = getelementptr inbounds nuw i8, ptr %3, i64 104
  %14 = load i32, ptr %13, align 8, !tbaa !40
  %15 = load ptr, ptr %8, align 8, !tbaa !3
  %16 = getelementptr inbounds nuw i8, ptr %3, i64 24
  %17 = load ptr, ptr %16, align 8, !tbaa !47
  %18 = icmp eq ptr %17, null
  %spec.select = select i1 %18, ptr @.str.4, ptr %17
  %19 = call i32 (ptr, ptr, ...) @pmix_asprintf(ptr noundef nonnull %6, ptr noundef nonnull @.str.3, ptr noundef nonnull %11, ptr noundef nonnull %5, i32 noundef %14, ptr noundef %15, ptr noundef nonnull %spec.select) #7
  %20 = load ptr, ptr %8, align 8, !tbaa !3
  %21 = call i32 @hwloc_obj_attr_snprintf(ptr noundef nonnull %5, i64 noundef 1024, ptr noundef %3, ptr noundef %20, i32 noundef 1) #7
  %22 = icmp sgt i32 %21, 0
  br i1 %22, label %23, label %29

23:                                               ; preds = %4
  %24 = load ptr, ptr %6, align 8, !tbaa !3
  %25 = load ptr, ptr %8, align 8, !tbaa !3
  %26 = call i32 (ptr, ptr, ...) @pmix_asprintf(ptr noundef nonnull %7, ptr noundef nonnull @.str.5, ptr noundef %24, ptr noundef %25, ptr noundef nonnull %5) #7
  %27 = load ptr, ptr %6, align 8, !tbaa !3
  call void @free(ptr noundef %27) #7
  %28 = load ptr, ptr %7, align 8, !tbaa !3
  store ptr %28, ptr %6, align 8, !tbaa !3
  br label %29

29:                                               ; preds = %23, %4
  %30 = getelementptr inbounds nuw i8, ptr %3, i64 184
  %31 = load ptr, ptr %30, align 8, !tbaa !48
  %.not = icmp eq ptr %31, null
  br i1 %.not, label %39, label %32

32:                                               ; preds = %29
  %33 = call i32 @hwloc_bitmap_snprintf(ptr noundef nonnull %5, i64 noundef 2048, ptr noundef nonnull %31) #7
  %34 = load ptr, ptr %6, align 8, !tbaa !3
  %35 = load ptr, ptr %8, align 8, !tbaa !3
  %36 = call i32 (ptr, ptr, ...) @pmix_asprintf(ptr noundef nonnull %7, ptr noundef nonnull @.str.6, ptr noundef %34, ptr noundef %35, ptr noundef nonnull %5) #7
  %37 = load ptr, ptr %6, align 8, !tbaa !3
  call void @free(ptr noundef %37) #7
  %38 = load ptr, ptr %7, align 8, !tbaa !3
  store ptr %38, ptr %6, align 8, !tbaa !3
  br label %39

39:                                               ; preds = %32, %29
  %40 = load i32, ptr %3, align 8, !tbaa !49
  %41 = icmp eq i32 %40, 0
  br i1 %41, label %42, label %._crit_edge43

._crit_edge43:                                    ; preds = %39
  %.pre = load ptr, ptr %6, align 8, !tbaa !3
  br label %67

42:                                               ; preds = %39
  %43 = call ptr @hwloc_topology_get_support(ptr noundef %2) #7
  %44 = load ptr, ptr %6, align 8, !tbaa !3
  %45 = load ptr, ptr %8, align 8, !tbaa !3
  %46 = getelementptr inbounds nuw i8, ptr %43, i64 8
  %47 = load ptr, ptr %46, align 8, !tbaa !36
  %48 = load i8, ptr %47, align 1, !tbaa !50
  %.not34 = icmp eq i8 %48, 0
  %49 = select i1 %.not34, ptr @.str.9, ptr @.str.8
  %50 = getelementptr inbounds nuw i8, ptr %47, i64 4
  %51 = load i8, ptr %50, align 1, !tbaa !52
  %.not35 = icmp eq i8 %51, 0
  %52 = select i1 %.not35, ptr @.str.9, ptr @.str.8
  %53 = call i32 (ptr, ptr, ...) @pmix_asprintf(ptr noundef nonnull %7, ptr noundef nonnull @.str.7, ptr noundef %44, ptr noundef %45, ptr noundef nonnull %49, ptr noundef %45, ptr noundef nonnull %52) #7
  %54 = load ptr, ptr %6, align 8, !tbaa !3
  call void @free(ptr noundef %54) #7
  %55 = load ptr, ptr %7, align 8, !tbaa !3
  store ptr %55, ptr %6, align 8, !tbaa !3
  %56 = load ptr, ptr %8, align 8, !tbaa !3
  %57 = getelementptr inbounds nuw i8, ptr %43, i64 16
  %58 = load ptr, ptr %57, align 8, !tbaa !37
  %59 = load i8, ptr %58, align 1, !tbaa !53
  %.not36 = icmp eq i8 %59, 0
  %60 = select i1 %.not36, ptr @.str.9, ptr @.str.8
  %61 = getelementptr inbounds nuw i8, ptr %58, i64 4
  %62 = load i8, ptr %61, align 1, !tbaa !55
  %.not37 = icmp eq i8 %62, 0
  %63 = select i1 %.not37, ptr @.str.9, ptr @.str.8
  %64 = call i32 (ptr, ptr, ...) @pmix_asprintf(ptr noundef nonnull %7, ptr noundef nonnull @.str.10, ptr noundef %55, ptr noundef %56, ptr noundef nonnull %60, ptr noundef %56, ptr noundef nonnull %63) #7
  %65 = load ptr, ptr %6, align 8, !tbaa !3
  call void @free(ptr noundef %65) #7
  %66 = load ptr, ptr %7, align 8, !tbaa !3
  store ptr %66, ptr %6, align 8, !tbaa !3
  br label %67

67:                                               ; preds = %._crit_edge43, %42
  %68 = phi ptr [ %.pre, %._crit_edge43 ], [ %66, %42 ]
  %69 = load ptr, ptr %0, align 8, !tbaa !3
  %70 = icmp eq ptr %69, null
  %spec.select39 = select i1 %70, ptr @.str.2, ptr %69
  %71 = call i32 (ptr, ptr, ...) @pmix_asprintf(ptr noundef nonnull %7, ptr noundef nonnull @.str.11, ptr noundef nonnull %spec.select39, ptr noundef %68) #7
  %72 = load ptr, ptr %6, align 8, !tbaa !3
  call void @free(ptr noundef %72) #7
  %73 = load ptr, ptr %8, align 8, !tbaa !3
  call void @free(ptr noundef %73) #7
  %74 = call i32 (ptr, ptr, ...) @pmix_asprintf(ptr noundef nonnull %8, ptr noundef nonnull @.str.12, ptr noundef nonnull %11) #7
  %75 = load i32, ptr %13, align 8, !tbaa !40
  %.not41 = icmp eq i32 %75, 0
  br i1 %.not41, label %._crit_edge, label %.lr.ph

.lr.ph:                                           ; preds = %67
  %76 = getelementptr inbounds nuw i8, ptr %3, i64 112
  br label %77

77:                                               ; preds = %.lr.ph, %77
  %indvars.iv = phi i64 [ 0, %.lr.ph ], [ %indvars.iv.next, %77 ]
  %78 = load ptr, ptr %76, align 8, !tbaa !56
  %79 = getelementptr inbounds nuw ptr, ptr %78, i64 %indvars.iv
  %80 = load ptr, ptr %79, align 8, !tbaa !57
  %81 = load ptr, ptr %8, align 8, !tbaa !3
  call fastcc void @print_hwloc_obj(ptr noundef %7, ptr noundef %81, ptr noundef %2, ptr noundef %80)
  %indvars.iv.next = add nuw nsw i64 %indvars.iv, 1
  %82 = load i32, ptr %13, align 8, !tbaa !40
  %83 = zext i32 %82 to i64
  %84 = icmp samesign ult i64 %indvars.iv.next, %83
  br i1 %84, label %77, label %._crit_edge, !llvm.loop !58

._crit_edge:                                      ; preds = %77, %67
  %85 = load ptr, ptr %8, align 8, !tbaa !3
  call void @free(ptr noundef %85) #7
  %86 = load ptr, ptr %0, align 8, !tbaa !3
  %.not38 = icmp eq ptr %86, null
  br i1 %.not38, label %88, label %87

87:                                               ; preds = %._crit_edge
  call void @free(ptr noundef nonnull %86) #7
  br label %88

88:                                               ; preds = %87, %._crit_edge
  %89 = load ptr, ptr %7, align 8, !tbaa !3
  store ptr %89, ptr %0, align 8, !tbaa !3
  call void @llvm.lifetime.end.p0(i64 8, ptr nonnull %8) #7
  call void @llvm.lifetime.end.p0(i64 8, ptr nonnull %7) #7
  call void @llvm.lifetime.end.p0(i64 8, ptr nonnull %6) #7
  call void @llvm.lifetime.end.p0(i64 1024, ptr nonnull %5) #7
  ret void
}